(dp0
S'78-82-0'
p1
S'C15668'
p2
sS'57-13-6'
p3
S'C20306'
p4
sS'5724-81-2'
p5
S'C01659'
p6
sS'6542-88-7'
p7
S'C06735'
p8
sS'60-35-5'
p9
S'C06244'
p10
sS'64768-29-2'
p11
S'C02420'
p12
sS'56329-27-2'
p13
S'C18706'
p14
sS'79-06-1'
p15
S'C02787'
p16
s.