ccollections
defaultdict
p0
(c__builtin__
set
p1
tp2
Rp3
S'map05204'
p4
g1
((lp5
S'C20306'
p6
atp7
Rp8
sS'map00430'
p9
g1
((lp10
S'C06735'
p11
atp12
Rp13
sS'map01120'
p14
g1
((lp15
S'C01659'
p16
atp17
Rp18
sS'map00643'
p19
g1
((lp20
g16
atp21
Rp22
s.