ccollections
defaultdict
p0
(c__builtin__
set
p1
tp2
Rp3
S'C20306'
p4
g1
((lp5
S'map05204'
p6
atp7
Rp8
sS'C01659'
p9
g1
((lp10
S'map01120'
p11
aS'map00643'
p12
atp13
Rp14
sS'C06735'
p15
g1
((lp16
S'map00430'
p17
atp18
Rp19
s.